target datalayout = "e-m:e-p270:32:32-p271:32:32-p272:64:64-i64:64-i128:128-f80:128-n8:16:32:64-S128"
target triple = "x86_64-pc-linux-gnu"

%struct.t_atoms = type { i32, ptr, ptr, ptr, ptr, i32, ptr, ptr, i8, i8, i8, i8, i8 }
%struct.t_symtab = type { i32, ptr }
%struct.t_topology = type { ptr, %struct.t_idef, %struct.t_atoms, %struct.t_block, i8, %struct.t_symtab }
%struct.t_idef = type { i32, i32, ptr, ptr, float, ptr, ptr, [95 x %struct.t_ilist], i32 }
%struct.t_ilist = type { i32, ptr, i32 }
%struct.t_block = type { i32, ptr, i32 }

@.str.14 = private unnamed_addr constant [11 x i8] c"name=\22%s\22\0A\00", align 1
@.str.18 = private unnamed_addr constant [28 x i8] c"bIntermolecularInteractions\00", align 1
@.str.27 = private unnamed_addr constant [5 x i8] c"true\00", align 1
@.str.28 = private unnamed_addr constant [6 x i8] c"false\00", align 1
@.str.29 = private unnamed_addr constant [6 x i8] c"atoms\00", align 1
@.str.45 = private unnamed_addr constant [5 x i8] c"mols\00", align 1
@.str.46 = private unnamed_addr constant [5 x i8] c"idef\00", align 1

; Function Attrs: inlinehint mustprogress nounwind uwtable
define internal noundef ptr @_ZN3gmxL12boolToStringEb(i1 noundef zeroext %0) #4 {
  %2 = alloca i8, align 1
  %3 = zext i1 %0 to i8
  store i8 %3, ptr %2, align 1, !tbaa !69
  %4 = load i8, ptr %2, align 1, !tbaa !69, !range !344, !noundef !345
  %5 = trunc i8 %4 to i1
  %6 = select i1 %5, ptr @.str.27, ptr @.str.28
  ret ptr %6
}

; Function Attrs: mustprogress uwtable
define void @_Z6pr_topP8_IO_FILEiPKcPK10t_topologybb(ptr noundef %0, i32 noundef %1, ptr noundef %2, ptr noundef %3, i1 noundef zeroext %4, i1 noundef zeroext %5) #0 {
  %7 = alloca ptr, align 8
  %8 = alloca i32, align 4
  %9 = alloca ptr, align 8
  %10 = alloca ptr, align 8
  %11 = alloca i8, align 1
  %12 = alloca i8, align 1
  store ptr %0, ptr %7, align 8, !tbaa !355
  store i32 %1, ptr %8, align 4, !tbaa !38
  store ptr %2, ptr %9, align 8, !tbaa !8
  store ptr %3, ptr %10, align 8, !tbaa !337
  %13 = zext i1 %4 to i8
  store i8 %13, ptr %11, align 1, !tbaa !69
  %14 = zext i1 %5 to i8
  store i8 %14, ptr %12, align 1, !tbaa !69
  %15 = load ptr, ptr %7, align 8, !tbaa !355
  %16 = load ptr, ptr %10, align 8, !tbaa !337
  %17 = load i32, ptr %8, align 4, !tbaa !38
  %18 = load ptr, ptr %9, align 8, !tbaa !8
  %19 = call noundef zeroext i1 @_Z9availableP8_IO_FILEPKviPKc(ptr noundef %15, ptr noundef %16, i32 noundef %17, ptr noundef %18)
  br i1 %19, label %20, label %61

20:                                               ; preds = %6
  %21 = load ptr, ptr %7, align 8, !tbaa !355
  %22 = load i32, ptr %8, align 4, !tbaa !38
  %23 = load ptr, ptr %9, align 8, !tbaa !8
  %24 = call noundef i32 @_Z8pr_titleP8_IO_FILEiPKc(ptr noundef %21, i32 noundef %22, ptr noundef %23)
  store i32 %24, ptr %8, align 4, !tbaa !38
  %25 = load ptr, ptr %7, align 8, !tbaa !355
  %26 = load i32, ptr %8, align 4, !tbaa !38
  %27 = call noundef i32 @_Z9pr_indentP8_IO_FILEi(ptr noundef %25, i32 noundef %26)
  %28 = load ptr, ptr %7, align 8, !tbaa !355
  %29 = load ptr, ptr %10, align 8, !tbaa !337
  %30 = getelementptr inbounds nuw %struct.t_topology, ptr %29, i32 0, i32 0
  %31 = load ptr, ptr %30, align 8, !tbaa !396
  %32 = load ptr, ptr %31, align 8, !tbaa !8
  %33 = call i32 (ptr, ptr, ...) @fprintf(ptr noundef %28, ptr noundef @.str.14, ptr noundef %32) #14
  %34 = load ptr, ptr %7, align 8, !tbaa !355
  %35 = load i32, ptr %8, align 4, !tbaa !38
  %36 = load ptr, ptr %10, align 8, !tbaa !337
  %37 = getelementptr inbounds nuw %struct.t_topology, ptr %36, i32 0, i32 2
  %38 = load i8, ptr %11, align 1, !tbaa !69, !range !344, !noundef !345
  %39 = trunc i8 %38 to i1
  call void @_Z8pr_atomsP8_IO_FILEiPKcPK7t_atomsb(ptr noundef %34, i32 noundef %35, ptr noundef @.str.29, ptr noundef %37, i1 noundef zeroext %39)
  %40 = load ptr, ptr %7, align 8, !tbaa !355
  %41 = load i32, ptr %8, align 4, !tbaa !38
  %42 = load ptr, ptr %10, align 8, !tbaa !337
  %43 = getelementptr inbounds nuw %struct.t_topology, ptr %42, i32 0, i32 3
  %44 = load i8, ptr %11, align 1, !tbaa !69, !range !344, !noundef !345
  %45 = trunc i8 %44 to i1
  call void @_Z8pr_blockP8_IO_FILEiPKcPK7t_blockb(ptr noundef %40, i32 noundef %41, ptr noundef @.str.45, ptr noundef %43, i1 noundef zeroext %45)
  %46 = load ptr, ptr %7, align 8, !tbaa !355
  %47 = load i32, ptr %8, align 4, !tbaa !38
  %48 = load ptr, ptr %10, align 8, !tbaa !337
  %49 = getelementptr inbounds nuw %struct.t_topology, ptr %48, i32 0, i32 4
  %50 = load i8, ptr %49, align 8, !tbaa !400, !range !344, !noundef !345
  %51 = trunc i8 %50 to i1
  %52 = call noundef ptr @_ZN3gmxL12boolToStringEb(i1 noundef zeroext %51)
  call void @_Z6pr_strP8_IO_FILEiPKcS2_(ptr noundef %46, i32 noundef %47, ptr noundef @.str.18, ptr noundef %52)
  %53 = load ptr, ptr %7, align 8, !tbaa !355
  %54 = load i32, ptr %8, align 4, !tbaa !38
  %55 = load ptr, ptr %10, align 8, !tbaa !337
  %56 = getelementptr inbounds nuw %struct.t_topology, ptr %55, i32 0, i32 1
  %57 = load i8, ptr %11, align 1, !tbaa !69, !range !344, !noundef !345
  %58 = trunc i8 %57 to i1
  %59 = load i8, ptr %12, align 1, !tbaa !69, !range !344, !noundef !345
  %60 = trunc i8 %59 to i1
  call void @_Z7pr_idefP8_IO_FILEiPKcPK6t_idefbb(ptr noundef %53, i32 noundef %54, ptr noundef @.str.46, ptr noundef %56, i1 noundef zeroext %58, i1 noundef zeroext %60)
  br label %61

61:                                               ; preds = %20, %6
  ret void
}