; Function Attrs: mustprogress uwtable
define void @_Z6pr_topP8_IO_FILEiPKcPK10t_topologybb(ptr noundef %0, i32 noundef %1, ptr noundef %2, ptr noundef %3, i1 noundef zeroext %4, i1 noundef zeroext %5) local_unnamed_addr #3 {
  %7 = tail call noundef zeroext i1 @_Z9availableP8_IO_FILEPKviPKc(ptr noundef %0, ptr noundef %3, i32 noundef %1, ptr noundef %2)
  br i1 %7, label %8, label %21

8:                                                ; preds = %6
  %9 = tail call noundef i32 @_Z8pr_titleP8_IO_FILEiPKc(ptr noundef %0, i32 noundef %1, ptr noundef %2)
  %10 = tail call noundef i32 @_Z9pr_indentP8_IO_FILEi(ptr noundef %0, i32 noundef %9)
  %11 = load ptr, ptr %3, align 8, !tbaa !163
  %12 = load ptr, ptr %11, align 8, !tbaa !4
  %13 = tail call i32 (ptr, ptr, ...) @fprintf(ptr noundef %0, ptr noundef nonnull @.str.14, ptr noundef %12) #20
  %14 = getelementptr inbounds nuw i8, ptr %3, i64 2344
  tail call void @_Z8pr_atomsP8_IO_FILEiPKcPK7t_atomsb(ptr noundef %0, i32 noundef %9, ptr noundef nonnull @.str.29, ptr noundef nonnull %14, i1 noundef zeroext %4)
  %15 = getelementptr inbounds nuw i8, ptr %3, i64 2416
  tail call void @_Z8pr_blockP8_IO_FILEiPKcPK7t_blockb(ptr noundef %0, i32 noundef %9, ptr noundef nonnull @.str.45, ptr noundef nonnull %15, i1 noundef zeroext %4)
  %16 = getelementptr inbounds nuw i8, ptr %3, i64 2440
  %17 = load i8, ptr %16, align 8, !tbaa !167, !range !143, !noundef !144
  %18 = trunc nuw i8 %17 to i1
  %19 = select i1 %18, ptr @.str.27, ptr @.str.28
  tail call void @_Z6pr_strP8_IO_FILEiPKcS2_(ptr noundef %0, i32 noundef %9, ptr noundef nonnull @.str.18, ptr noundef nonnull %19)
  %20 = getelementptr inbounds nuw i8, ptr %3, i64 8
  tail call void @_Z7pr_idefP8_IO_FILEiPKcPK6t_idefbb(ptr noundef %0, i32 noundef %9, ptr noundef nonnull @.str.46, ptr noundef nonnull %20, i1 noundef zeroext %4, i1 noundef zeroext %5)
  br label %21

21:                                               ; preds = %8, %6
  ret void
}